(lp0
(lp1
(I1900
I233332
tp2
a(I1901
I222680
tp3
a(I1902
I220628
tp4
a(I1903
I210877
tp5
a(I1904
I229428
tp6
a(I1905
I212127
tp7
a(I1906
I229139
tp8
a(I1907
I223780
tp9
a(I1908
I222886
tp10
a(I1909
I194765
tp11
a(I1910
I202859
tp12
a(I1911
I198674
tp13
a(I1912
I196518
tp14
a(I1913
I198237
tp15
a(I1914
I193775
tp16
a(I1915
I168617
tp17
a(I1916
I174761
tp18
a(I1917
I181732
tp19
a(I1918
I154064
tp20
a(I1919
I181102
tp21
a(I1920
I208703
tp22
a(I1921
I166937
tp23
a(I1922
I190480
tp24
a(I1923
I172811
tp25
a(I1924
I148148
tp26
a(I1925
I148407
tp27
a(I1926
I148668
tp28
a(I1927
I168844
tp29
a(I1928
I164398
tp30
a(I1929
I163032
tp31
a(I1930
I173361
tp32
a(I1931
I165016
tp33
a(I1932
I146839
tp34
a(I1933
I127719
tp35
a(I1934
I143222
tp36
a(I1935
I164047
tp37
a(I1936
I157951
tp38
a(I1937
I157008
tp39
a(I1938
I151119
tp40
a(I1939
I154323
tp41
a(I1940
I136965
tp42
a(I1941
I130159
tp43
a(I1942
I140152
tp44
a(I1943
I126288
tp45
a(I1944
I107808
tp46
a(I1945
I122859
tp47
a(I1946
I171103
tp48
a(I1947
I196902
tp49
a(I1948
I186516
tp50
a(I1949
I199609
tp51
a(I1950
I210679
tp52
a(I1951
I196779
tp53
a(I1952
I215452
tp54
a(I1953
I196465
tp55
a(I1954
I200363
tp56
a(I1955
I213974
tp57
a(I1956
I224139
tp58
a(I1957
I248265
tp59
a(I1958
I242934
tp60
a(I1959
I244235
tp61
a(I1960
I297247
tp62
a(I1961
I319929
tp63
a(I1962
I343392
tp64
a(I1963
I361026
tp65
a(I1964
I328836
tp66
a(I1965
I381382
tp67
a(I1966
I389529
tp68
a(I1967
I410154
tp69
a(I1968
I460005
tp70
a(I1969
I443582
tp71
a(I1970
I453791
tp72
a(I1971
I401502
tp73
a(I1972
I389669
tp74
a(I1973
I371696
tp75
a(I1974
I354108
tp76
a(I1975
I343216
tp77
a(I1976
I353771
tp78
a(I1977
I348864
tp79
a(I1978
I352825
tp80
a(I1979
I357847
tp81
a(I1980
I354729
tp82
a(I1981
I338221
tp83
a(I1982
I359613
tp84
a(I1983
I366335
tp85
a(I1984
I388249
tp86
a(I1985
I402007
tp87
a(I1986
I404093
tp88
a(I1987
I418227
tp89
a(I1988
I437666
tp90
a(I1989
I447620
tp91
a(I1990
I475791
tp92
a(I1991
I476540
tp93
a(I1992
I499984
tp94
a(I1993
I497828
tp95
a(I1994
I536491
tp96
a(I1995
I573478
tp97
a(I1996
I645236
tp98
a(I1997
I648442
tp99
a(I1998
I702394
tp100
a(I1999
I735750
tp101
a(I2000
I895091
tp102
aa.