(lp0
(lp1
(I1900
I905327
tp2
a(I1901
I849710
tp3
a(I1902
I823915
tp4
a(I1903
I808974
tp5
a(I1904
I854958
tp6
a(I1905
I776919
tp7
a(I1906
I832231
tp8
a(I1907
I823831
tp9
a(I1908
I818426
tp10
a(I1909
I709160
tp11
a(I1910
I745025
tp12
a(I1911
I716488
tp13
a(I1912
I738779
tp14
a(I1913
I700277
tp15
a(I1914
I700566
tp16
a(I1915
I605571
tp17
a(I1916
I616475
tp18
a(I1917
I636992
tp19
a(I1918
I551418
tp20
a(I1919
I605651
tp21
a(I1920
I713236
tp22
a(I1921
I610290
tp23
a(I1922
I712552
tp24
a(I1923
I615365
tp25
a(I1924
I538985
tp26
a(I1925
I572545
tp27
a(I1926
I567720
tp28
a(I1927
I633695
tp29
a(I1928
I604495
tp30
a(I1929
I619024
tp31
a(I1930
I641549
tp32
a(I1931
I621475
tp33
a(I1932
I537244
tp34
a(I1933
I480623
tp35
a(I1934
I516594
tp36
a(I1935
I599922
tp37
a(I1936
I582279
tp38
a(I1937
I578925
tp39
a(I1938
I557714
tp40
a(I1939
I546042
tp41
a(I1940
I485611
tp42
a(I1941
I456848
tp43
a(I1942
I485140
tp44
a(I1943
I428635
tp45
a(I1944
I388172
tp46
a(I1945
I441981
tp47
a(I1946
I629644
tp48
a(I1947
I713606
tp49
a(I1948
I684190
tp50
a(I1949
I722270
tp51
a(I1950
I773440
tp52
a(I1951
I713724
tp53
a(I1952
I724680
tp54
a(I1953
I715573
tp55
a(I1954
I737298
tp56
a(I1955
I781456
tp57
a(I1956
I804259
tp58
a(I1957
I850456
tp59
a(I1958
I836830
tp60
a(I1959
I860222
tp61
a(I1960
I1031168
tp62
a(I1961
I1093230
tp63
a(I1962
I1178491
tp64
a(I1963
I1215499
tp65
a(I1964
I1091111
tp66
a(I1965
I1265489
tp67
a(I1966
I1316084
tp68
a(I1967
I1388717
tp69
a(I1968
I1541727
tp70
a(I1969
I1479500
tp71
a(I1970
I1517964
tp72
a(I1971
I1359460
tp73
a(I1972
I1337768
tp74
a(I1973
I1277064
tp75
a(I1974
I1209550
tp76
a(I1975
I1210559
tp77
a(I1976
I1261548
tp78
a(I1977
I1235565
tp79
a(I1978
I1255564
tp80
a(I1979
I1260792
tp81
a(I1980
I1268394
tp82
a(I1981
I1216790
tp83
a(I1982
I1287594
tp84
a(I1983
I1340271
tp85
a(I1984
I1425815
tp86
a(I1985
I1416314
tp87
a(I1986
I1487406
tp88
a(I1987
I1505817
tp89
a(I1988
I1610055
tp90
a(I1989
I1647980
tp91
a(I1990
I1787263
tp92
a(I1991
I1780494
tp93
a(I1992
I1867010
tp94
a(I1993
I1868811
tp95
a(I1994
I2028616
tp96
a(I1995
I2169983
tp97
a(I1996
I2367220
tp98
a(I1997
I2383545
tp99
a(I1998
I2556941
tp100
a(I1999
I2775041
tp101
a(I2000
I3388516
tp102
aa.