(lp0
(lp1
(I1900
I406
tp2
a(I1901
I369
tp3
a(I1902
I612
tp4
a(I1903
I470
tp5
a(I1904
I744
tp6
a(I1905
I627
tp7
a(I1906
I686
tp8
a(I1907
I437
tp9
a(I1908
I760
tp10
a(I1909
I477
tp11
a(I1910
I501
tp12
a(I1911
I462
tp13
a(I1912
I641
tp14
a(I1913
I470
tp15
a(I1914
I658
tp16
a(I1915
I525
tp17
a(I1916
I291
tp18
a(I1917
I194
tp19
a(I1918
I172
tp20
a(I1919
I332
tp21
a(I1920
I279
tp22
a(I1921
I189
tp23
a(I1922
I368
tp24
a(I1923
I328
tp25
a(I1924
I374
tp26
a(I1925
I546
tp27
a(I1926
I366
tp28
a(I1927
I598
tp29
a(I1928
I477
tp30
a(I1929
I692
tp31
a(I1930
I521
tp32
a(I1931
I682
tp33
a(I1932
I624
tp34
a(I1933
I677
tp35
a(I1934
I801
tp36
a(I1935
I1514
tp37
a(I1936
I863
tp38
a(I1937
I948
tp39
a(I1938
I645
tp40
a(I1939
I434
tp41
a(I1940
I277
tp42
a(I1941
I258
tp43
a(I1942
I127
tp44
a(I1943
I170
tp45
a(I1944
I270
tp46
a(I1945
I62
tp47
a(I1946
I304
tp48
a(I1947
I222
tp49
a(I1948
I433
tp50
a(I1949
I744
tp51
a(I1950
I596
tp52
a(I1951
I675
tp53
a(I1952
I527
tp54
a(I1953
I609
tp55
a(I1954
I583
tp56
a(I1955
I846
tp57
a(I1956
I983
tp58
a(I1957
I940
tp59
a(I1958
I1540
tp60
a(I1959
I1135
tp61
a(I1960
I1142
tp62
a(I1961
I1616
tp63
a(I1962
I1581
tp64
a(I1963
I1620
tp65
a(I1964
I1953
tp66
a(I1965
I2036
tp67
a(I1966
I2164
tp68
a(I1967
I2562
tp69
a(I1968
I2503
tp70
a(I1969
I2841
tp71
a(I1970
I2770
tp72
a(I1971
I3136
tp73
a(I1972
I4214
tp74
a(I1973
I3379
tp75
a(I1974
I5106
tp76
a(I1975
I5124
tp77
a(I1976
I4945
tp78
a(I1977
I6635
tp79
a(I1978
I4997
tp80
a(I1979
I5294
tp81
a(I1980
I5092
tp82
a(I1981
I4827
tp83
a(I1982
I5277
tp84
a(I1983
I5527
tp85
a(I1984
I4311
tp86
a(I1985
I4349
tp87
a(I1986
I4115
tp88
a(I1987
I3796
tp89
a(I1988
I4038
tp90
a(I1989
I3926
tp91
a(I1990
I4020
tp92
a(I1991
I3821
tp93
a(I1992
I3197
tp94
a(I1993
I3778
tp95
a(I1994
I4602
tp96
a(I1995
I4198
tp97
a(I1996
I4400
tp98
a(I1997
I3875
tp99
a(I1998
I4378
tp100
a(I1999
I3736
tp101
a(I2000
I6269
tp102
aa.