(lp0
(lp1
(I1900
I1332739
tp2
a(I1901
I1474263
tp3
a(I1902
I1580160
tp4
a(I1903
I1679979
tp5
a(I1904
I1807557
tp6
a(I1905
I1995550
tp7
a(I1906
I2065104
tp8
a(I1907
I2137827
tp9
a(I1908
I2159865
tp10
a(I1909
I1281309
tp11
a(I1910
I1298947
tp12
a(I1911
I1303258
tp13
a(I1912
I1352778
tp14
a(I1913
I1394303
tp15
a(I1914
I1163293
tp16
a(I1915
I724482
tp17
a(I1916
I665771
tp18
a(I1917
I573614
tp19
a(I1918
I581894
tp20
a(I1919
I789906
tp21
a(I1920
I1019221
tp22
a(I1921
I1073475
tp23
a(I1922
I1311441
tp24
a(I1923
I1352042
tp25
a(I1924
I1093272
tp26
a(I1925
I1290584
tp27
a(I1926
I1368414
tp28
a(I1927
I1312832
tp29
a(I1928
I1313407
tp30
a(I1929
I1280177
tp31
a(I1930
I1354968
tp32
a(I1931
I1192829
tp33
a(I1932
I1161147
tp34
a(I1933
I1035776
tp35
a(I1934
I1028778
tp36
a(I1935
I1000791
tp37
a(I1936
I899554
tp38
a(I1937
I1014448
tp39
a(I1938
I909494
tp40
a(I1939
I1004510
tp41
a(I1940
I642599
tp42
a(I1941
I612449
tp43
a(I1942
I610266
tp44
a(I1943
I736380
tp45
a(I1944
I489644
tp46
a(I1945
I417843
tp47
a(I1946
I541066
tp48
a(I1947
I798270
tp49
a(I1948
I835629
tp50
a(I1949
I996022
tp51
a(I1950
I982159
tp52
a(I1951
I958129
tp53
a(I1952
I997094
tp54
a(I1953
I1051479
tp55
a(I1954
I1108545
tp56
a(I1955
I1188181
tp57
a(I1956
I1235742
tp58
a(I1957
I1394193
tp59
a(I1958
I1503780
tp60
a(I1959
I1558520
tp61
a(I1960
I1666935
tp62
a(I1961
I1853363
tp63
a(I1962
I2014999
tp64
a(I1963
I2018768
tp65
a(I1964
I1974879
tp66
a(I1965
I2094639
tp67
a(I1966
I2106746
tp68
a(I1967
I2431606
tp69
a(I1968
I2517217
tp70
a(I1969
I2491979
tp71
a(I1970
I2505158
tp72
a(I1971
I2509037
tp73
a(I1972
I2355548
tp74
a(I1973
I2422956
tp75
a(I1974
I2493031
tp76
a(I1975
I2637377
tp77
a(I1976
I2511961
tp78
a(I1977
I2801925
tp79
a(I1978
I2765753
tp80
a(I1979
I2884619
tp81
a(I1980
I2883332
tp82
a(I1981
I2755362
tp83
a(I1982
I2726129
tp84
a(I1983
I2725501
tp85
a(I1984
I2481916
tp86
a(I1985
I2243481
tp87
a(I1986
I2202386
tp88
a(I1987
I2087050
tp89
a(I1988
I2342608
tp90
a(I1989
I2281301
tp91
a(I1990
I2251095
tp92
a(I1991
I2113606
tp93
a(I1992
I1959711
tp94
a(I1993
I2217058
tp95
a(I1994
I2252672
tp96
a(I1995
I2419751
tp97
a(I1996
I2170266
tp98
a(I1997
I1998205
tp99
a(I1998
I1894019
tp100
a(I1999
I2466497
tp101
a(I2000
I3409155
tp102
aa.